target datalayout = "e-m:e-p270:32:32-p271:32:32-p272:64:64-i64:64-i128:128-f80:128-n8:16:32:64-S128"
target triple = "x86_64-pc-linux-gnu"

%struct._exr_decode_pipeline = type { i64, ptr, i16, i16, i32, ptr, %struct.exr_chunk_info_t, i32, i32, i64, ptr, ptr, i64, ptr, i64, ptr, i64, ptr, i64, ptr, i64, ptr, i64, ptr, ptr, ptr, ptr, ptr, ptr, [5 x %struct.exr_coding_channel_info_t] }
%struct.exr_chunk_info_t = type { i32, i32, i32, i32, i32, i8, i8, i8, i8, i64, i64, i64, i64, i64 }
%struct.exr_coding_channel_info_t = type { ptr, i32, i32, i32, i32, i8, i8, i16, i16, i16, i32, i32, %union.anon }
%union.anon = type { ptr }

; Function Attrs: inlinehint nounwind uwtable
define internal zeroext i16 @__uint16_identity(i16 noundef zeroext %0) #2 {
  %2 = alloca i16, align 2
  store i16 %0, ptr %2, align 2, !tbaa !44
  %3 = load i16, ptr %2, align 2, !tbaa !44
  ret i16 %3
}

; Function Attrs: inlinehint nounwind uwtable
define internal zeroext i16 @one_to_native16(i16 noundef zeroext %0) #2 {
  %2 = alloca i16, align 2
  store i16 %0, ptr %2, align 2, !tbaa !44
  %3 = load i16, ptr %2, align 2, !tbaa !44
  %4 = call zeroext i16 @__uint16_identity(i16 noundef zeroext %3)
  ret i16 %4
}

; Function Attrs: nounwind uwtable
define internal i32 @unpack_16bit_3chan(ptr noundef %0) #0 {
  %2 = alloca ptr, align 8
  %3 = alloca ptr, align 8
  %4 = alloca ptr, align 8
  %5 = alloca ptr, align 8
  %6 = alloca ptr, align 8
  %7 = alloca ptr, align 8
  %8 = alloca ptr, align 8
  %9 = alloca ptr, align 8
  %10 = alloca i32, align 4
  %11 = alloca i32, align 4
  %12 = alloca i32, align 4
  %13 = alloca i32, align 4
  %14 = alloca i32, align 4
  %15 = alloca i32, align 4
  %16 = alloca i32, align 4
  %17 = alloca i32, align 4
  %18 = alloca i32, align 4
  %19 = alloca i32, align 4
  %20 = alloca i32, align 4
  %21 = alloca i32, align 4
  %22 = alloca i32, align 4
  store ptr %0, ptr %2, align 8, !tbaa !3
  call void @llvm.lifetime.start.p0(i64 8, ptr %3) #6
  %23 = load ptr, ptr %2, align 8, !tbaa !3
  %24 = getelementptr inbounds nuw %struct._exr_decode_pipeline, ptr %23, i32 0, i32 13
  %25 = load ptr, ptr %24, align 8, !tbaa !19
  store ptr %25, ptr %3, align 8, !tbaa !20
  call void @llvm.lifetime.start.p0(i64 8, ptr %4) #6
  call void @llvm.lifetime.start.p0(i64 8, ptr %5) #6
  call void @llvm.lifetime.start.p0(i64 8, ptr %6) #6
  call void @llvm.lifetime.start.p0(i64 8, ptr %7) #6
  call void @llvm.lifetime.start.p0(i64 8, ptr %8) #6
  call void @llvm.lifetime.start.p0(i64 8, ptr %9) #6
  call void @llvm.lifetime.start.p0(i64 4, ptr %10) #6
  call void @llvm.lifetime.start.p0(i64 4, ptr %11) #6
  call void @llvm.lifetime.start.p0(i64 4, ptr %12) #6
  call void @llvm.lifetime.start.p0(i64 4, ptr %13) #6
  call void @llvm.lifetime.start.p0(i64 4, ptr %14) #6
  call void @llvm.lifetime.start.p0(i64 4, ptr %15) #6
  call void @llvm.lifetime.start.p0(i64 4, ptr %16) #6
  call void @llvm.lifetime.start.p0(i64 4, ptr %17) #6
  %26 = load ptr, ptr %2, align 8, !tbaa !3
  %27 = getelementptr inbounds nuw %struct._exr_decode_pipeline, ptr %26, i32 0, i32 1
  %28 = load ptr, ptr %27, align 8, !tbaa !28
  %29 = getelementptr inbounds %struct.exr_coding_channel_info_t, ptr %28, i64 0
  %30 = getelementptr inbounds nuw %struct.exr_coding_channel_info_t, ptr %29, i32 0, i32 2
  %31 = load i32, ptr %30, align 4, !tbaa !72
  store i32 %31, ptr %10, align 4, !tbaa !8
  %32 = load ptr, ptr %2, align 8, !tbaa !3
  %33 = getelementptr inbounds nuw %struct._exr_decode_pipeline, ptr %32, i32 0, i32 6
  %34 = getelementptr inbounds nuw %struct.exr_chunk_info_t, ptr %33, i32 0, i32 3
  %35 = load i32, ptr %34, align 4, !tbaa !25
  %36 = load ptr, ptr %2, align 8, !tbaa !3
  %37 = getelementptr inbounds nuw %struct._exr_decode_pipeline, ptr %36, i32 0, i32 8
  %38 = load i32, ptr %37, align 4, !tbaa !26
  %39 = sub nsw i32 %35, %38
  store i32 %39, ptr %11, align 4, !tbaa !8
  %40 = load ptr, ptr %2, align 8, !tbaa !3
  %41 = getelementptr inbounds nuw %struct._exr_decode_pipeline, ptr %40, i32 0, i32 1
  %42 = load ptr, ptr %41, align 8, !tbaa !28
  %43 = getelementptr inbounds %struct.exr_coding_channel_info_t, ptr %42, i64 0
  %44 = getelementptr inbounds nuw %struct.exr_coding_channel_info_t, ptr %43, i32 0, i32 10
  %45 = load i32, ptr %44, align 8, !tbaa !38
  store i32 %45, ptr %12, align 4, !tbaa !8
  %46 = load ptr, ptr %2, align 8, !tbaa !3
  %47 = getelementptr inbounds nuw %struct._exr_decode_pipeline, ptr %46, i32 0, i32 1
  %48 = load ptr, ptr %47, align 8, !tbaa !28
  %49 = getelementptr inbounds %struct.exr_coding_channel_info_t, ptr %48, i64 1
  %50 = getelementptr inbounds nuw %struct.exr_coding_channel_info_t, ptr %49, i32 0, i32 10
  %51 = load i32, ptr %50, align 8, !tbaa !38
  store i32 %51, ptr %13, align 4, !tbaa !8
  %52 = load ptr, ptr %2, align 8, !tbaa !3
  %53 = getelementptr inbounds nuw %struct._exr_decode_pipeline, ptr %52, i32 0, i32 1
  %54 = load ptr, ptr %53, align 8, !tbaa !28
  %55 = getelementptr inbounds %struct.exr_coding_channel_info_t, ptr %54, i64 2
  %56 = getelementptr inbounds nuw %struct.exr_coding_channel_info_t, ptr %55, i32 0, i32 10
  %57 = load i32, ptr %56, align 8, !tbaa !38
  store i32 %57, ptr %14, align 4, !tbaa !8
  %58 = load ptr, ptr %2, align 8, !tbaa !3
  %59 = getelementptr inbounds nuw %struct._exr_decode_pipeline, ptr %58, i32 0, i32 1
  %60 = load ptr, ptr %59, align 8, !tbaa !28
  %61 = getelementptr inbounds %struct.exr_coding_channel_info_t, ptr %60, i64 0
  %62 = getelementptr inbounds nuw %struct.exr_coding_channel_info_t, ptr %61, i32 0, i32 11
  %63 = load i32, ptr %62, align 4, !tbaa !37
  store i32 %63, ptr %15, align 4, !tbaa !8
  %64 = load ptr, ptr %2, align 8, !tbaa !3
  %65 = getelementptr inbounds nuw %struct._exr_decode_pipeline, ptr %64, i32 0, i32 1
  %66 = load ptr, ptr %65, align 8, !tbaa !28
  %67 = getelementptr inbounds %struct.exr_coding_channel_info_t, ptr %66, i64 1
  %68 = getelementptr inbounds nuw %struct.exr_coding_channel_info_t, ptr %67, i32 0, i32 11
  %69 = load i32, ptr %68, align 4, !tbaa !37
  store i32 %69, ptr %16, align 4, !tbaa !8
  %70 = load ptr, ptr %2, align 8, !tbaa !3
  %71 = getelementptr inbounds nuw %struct._exr_decode_pipeline, ptr %70, i32 0, i32 1
  %72 = load ptr, ptr %71, align 8, !tbaa !28
  %73 = getelementptr inbounds %struct.exr_coding_channel_info_t, ptr %72, i64 2
  %74 = getelementptr inbounds nuw %struct.exr_coding_channel_info_t, ptr %73, i32 0, i32 11
  %75 = load i32, ptr %74, align 4, !tbaa !37
  store i32 %75, ptr %17, align 4, !tbaa !8
  %76 = load ptr, ptr %2, align 8, !tbaa !3
  %77 = getelementptr inbounds nuw %struct._exr_decode_pipeline, ptr %76, i32 0, i32 1
  %78 = load ptr, ptr %77, align 8, !tbaa !28
  %79 = getelementptr inbounds %struct.exr_coding_channel_info_t, ptr %78, i64 0
  %80 = getelementptr inbounds nuw %struct.exr_coding_channel_info_t, ptr %79, i32 0, i32 12
  %81 = load ptr, ptr %80, align 8, !tbaa !10
  store ptr %81, ptr %7, align 8, !tbaa !20
  %82 = load ptr, ptr %2, align 8, !tbaa !3
  %83 = getelementptr inbounds nuw %struct._exr_decode_pipeline, ptr %82, i32 0, i32 1
  %84 = load ptr, ptr %83, align 8, !tbaa !28
  %85 = getelementptr inbounds %struct.exr_coding_channel_info_t, ptr %84, i64 1
  %86 = getelementptr inbounds nuw %struct.exr_coding_channel_info_t, ptr %85, i32 0, i32 12
  %87 = load ptr, ptr %86, align 8, !tbaa !10
  store ptr %87, ptr %8, align 8, !tbaa !20
  %88 = load ptr, ptr %2, align 8, !tbaa !3
  %89 = getelementptr inbounds nuw %struct._exr_decode_pipeline, ptr %88, i32 0, i32 1
  %90 = load ptr, ptr %89, align 8, !tbaa !28
  %91 = getelementptr inbounds %struct.exr_coding_channel_info_t, ptr %90, i64 2
  %92 = getelementptr inbounds nuw %struct.exr_coding_channel_info_t, ptr %91, i32 0, i32 12
  %93 = load ptr, ptr %92, align 8, !tbaa !10
  store ptr %93, ptr %9, align 8, !tbaa !20
  %94 = load ptr, ptr %2, align 8, !tbaa !3
  %95 = getelementptr inbounds nuw %struct._exr_decode_pipeline, ptr %94, i32 0, i32 7
  %96 = load i32, ptr %95, align 8, !tbaa !27
  %97 = load i32, ptr %10, align 4, !tbaa !8
  %98 = mul nsw i32 %96, %97
  %99 = mul nsw i32 %98, 6
  %100 = load ptr, ptr %3, align 8, !tbaa !20
  %101 = sext i32 %99 to i64
  %102 = getelementptr inbounds i8, ptr %100, i64 %101
  store ptr %102, ptr %3, align 8, !tbaa !20
  call void @llvm.lifetime.start.p0(i64 4, ptr %18) #6
  %103 = load ptr, ptr %2, align 8, !tbaa !3
  %104 = getelementptr inbounds nuw %struct._exr_decode_pipeline, ptr %103, i32 0, i32 7
  %105 = load i32, ptr %104, align 8, !tbaa !27
  store i32 %105, ptr %18, align 4, !tbaa !8
  br label %106

106:                                              ; preds = %204, %1
  %107 = load i32, ptr %18, align 4, !tbaa !8
  %108 = load i32, ptr %11, align 4, !tbaa !8
  %109 = icmp slt i32 %107, %108
  br i1 %109, label %111, label %110

110:                                              ; preds = %106
  store i32 2, ptr %19, align 4
  call void @llvm.lifetime.end.p0(i64 4, ptr %18) #6
  br label %207

111:                                              ; preds = %106
  %112 = load ptr, ptr %3, align 8, !tbaa !20
  store ptr %112, ptr %4, align 8, !tbaa !42
  %113 = load ptr, ptr %4, align 8, !tbaa !42
  %114 = load i32, ptr %10, align 4, !tbaa !8
  %115 = sext i32 %114 to i64
  %116 = getelementptr inbounds i16, ptr %113, i64 %115
  store ptr %116, ptr %5, align 8, !tbaa !42
  %117 = load ptr, ptr %5, align 8, !tbaa !42
  %118 = load i32, ptr %10, align 4, !tbaa !8
  %119 = sext i32 %118 to i64
  %120 = getelementptr inbounds i16, ptr %117, i64 %119
  store ptr %120, ptr %6, align 8, !tbaa !42
  %121 = load i32, ptr %10, align 4, !tbaa !8
  %122 = mul nsw i32 %121, 6
  %123 = load ptr, ptr %3, align 8, !tbaa !20
  %124 = sext i32 %122 to i64
  %125 = getelementptr inbounds i8, ptr %123, i64 %124
  store ptr %125, ptr %3, align 8, !tbaa !20
  call void @llvm.lifetime.start.p0(i64 4, ptr %20) #6
  store i32 0, ptr %20, align 4, !tbaa !8
  br label %126

126:                                              ; preds = %144, %111
  %127 = load i32, ptr %20, align 4, !tbaa !8
  %128 = load i32, ptr %10, align 4, !tbaa !8
  %129 = icmp slt i32 %127, %128
  br i1 %129, label %131, label %130

130:                                              ; preds = %126
  store i32 5, ptr %19, align 4
  call void @llvm.lifetime.end.p0(i64 4, ptr %20) #6
  br label %147

131:                                              ; preds = %126
  %132 = load ptr, ptr %4, align 8, !tbaa !42
  %133 = load i32, ptr %20, align 4, !tbaa !8
  %134 = sext i32 %133 to i64
  %135 = getelementptr inbounds i16, ptr %132, i64 %134
  %136 = load i16, ptr %135, align 2, !tbaa !44
  %137 = call zeroext i16 @one_to_native16(i16 noundef zeroext %136)
  %138 = load ptr, ptr %7, align 8, !tbaa !20
  %139 = load i32, ptr %20, align 4, !tbaa !8
  %140 = load i32, ptr %12, align 4, !tbaa !8
  %141 = mul nsw i32 %139, %140
  %142 = sext i32 %141 to i64
  %143 = getelementptr inbounds i8, ptr %138, i64 %142
  store i16 %137, ptr %143, align 2, !tbaa !44
  br label %144

144:                                              ; preds = %131
  %145 = load i32, ptr %20, align 4, !tbaa !8
  %146 = add nsw i32 %145, 1
  store i32 %146, ptr %20, align 4, !tbaa !8
  br label %126, !llvm.loop !115

147:                                              ; preds = %130
  call void @llvm.lifetime.start.p0(i64 4, ptr %21) #6
  store i32 0, ptr %21, align 4, !tbaa !8
  br label %148

148:                                              ; preds = %166, %147
  %149 = load i32, ptr %21, align 4, !tbaa !8
  %150 = load i32, ptr %10, align 4, !tbaa !8
  %151 = icmp slt i32 %149, %150
  br i1 %151, label %153, label %152

152:                                              ; preds = %148
  store i32 8, ptr %19, align 4
  call void @llvm.lifetime.end.p0(i64 4, ptr %21) #6
  br label %169

153:                                              ; preds = %148
  %154 = load ptr, ptr %5, align 8, !tbaa !42
  %155 = load i32, ptr %21, align 4, !tbaa !8
  %156 = sext i32 %155 to i64
  %157 = getelementptr inbounds i16, ptr %154, i64 %156
  %158 = load i16, ptr %157, align 2, !tbaa !44
  %159 = call zeroext i16 @one_to_native16(i16 noundef zeroext %158)
  %160 = load ptr, ptr %8, align 8, !tbaa !20
  %161 = load i32, ptr %21, align 4, !tbaa !8
  %162 = load i32, ptr %13, align 4, !tbaa !8
  %163 = mul nsw i32 %161, %162
  %164 = sext i32 %163 to i64
  %165 = getelementptr inbounds i8, ptr %160, i64 %164
  store i16 %159, ptr %165, align 2, !tbaa !44
  br label %166

166:                                              ; preds = %153
  %167 = load i32, ptr %21, align 4, !tbaa !8
  %168 = add nsw i32 %167, 1
  store i32 %168, ptr %21, align 4, !tbaa !8
  br label %148, !llvm.loop !116

169:                                              ; preds = %152
  call void @llvm.lifetime.start.p0(i64 4, ptr %22) #6
  store i32 0, ptr %22, align 4, !tbaa !8
  br label %170

170:                                              ; preds = %188, %169
  %171 = load i32, ptr %22, align 4, !tbaa !8
  %172 = load i32, ptr %10, align 4, !tbaa !8
  %173 = icmp slt i32 %171, %172
  br i1 %173, label %175, label %174

174:                                              ; preds = %170
  store i32 11, ptr %19, align 4
  call void @llvm.lifetime.end.p0(i64 4, ptr %22) #6
  br label %191

175:                                              ; preds = %170
  %176 = load ptr, ptr %6, align 8, !tbaa !42
  %177 = load i32, ptr %22, align 4, !tbaa !8
  %178 = sext i32 %177 to i64
  %179 = getelementptr inbounds i16, ptr %176, i64 %178
  %180 = load i16, ptr %179, align 2, !tbaa !44
  %181 = call zeroext i16 @one_to_native16(i16 noundef zeroext %180)
  %182 = load ptr, ptr %9, align 8, !tbaa !20
  %183 = load i32, ptr %22, align 4, !tbaa !8
  %184 = load i32, ptr %14, align 4, !tbaa !8
  %185 = mul nsw i32 %183, %184
  %186 = sext i32 %185 to i64
  %187 = getelementptr inbounds i8, ptr %182, i64 %186
  store i16 %181, ptr %187, align 2, !tbaa !44
  br label %188

188:                                              ; preds = %175
  %189 = load i32, ptr %22, align 4, !tbaa !8
  %190 = add nsw i32 %189, 1
  store i32 %190, ptr %22, align 4, !tbaa !8
  br label %170, !llvm.loop !117

191:                                              ; preds = %174
  %192 = load i32, ptr %15, align 4, !tbaa !8
  %193 = load ptr, ptr %7, align 8, !tbaa !20
  %194 = sext i32 %192 to i64
  %195 = getelementptr inbounds i8, ptr %193, i64 %194
  store ptr %195, ptr %7, align 8, !tbaa !20
  %196 = load i32, ptr %16, align 4, !tbaa !8
  %197 = load ptr, ptr %8, align 8, !tbaa !20
  %198 = sext i32 %196 to i64
  %199 = getelementptr inbounds i8, ptr %197, i64 %198
  store ptr %199, ptr %8, align 8, !tbaa !20
  %200 = load i32, ptr %17, align 4, !tbaa !8
  %201 = load ptr, ptr %9, align 8, !tbaa !20
  %202 = sext i32 %200 to i64
  %203 = getelementptr inbounds i8, ptr %201, i64 %202
  store ptr %203, ptr %9, align 8, !tbaa !20
  br label %204

204:                                              ; preds = %191
  %205 = load i32, ptr %18, align 4, !tbaa !8
  %206 = add nsw i32 %205, 1
  store i32 %206, ptr %18, align 4, !tbaa !8
  br label %106, !llvm.loop !118

207:                                              ; preds = %110
  store i32 1, ptr %19, align 4
  call void @llvm.lifetime.end.p0(i64 4, ptr %17) #6
  call void @llvm.lifetime.end.p0(i64 4, ptr %16) #6
  call void @llvm.lifetime.end.p0(i64 4, ptr %15) #6
  call void @llvm.lifetime.end.p0(i64 4, ptr %14) #6
  call void @llvm.lifetime.end.p0(i64 4, ptr %13) #6
  call void @llvm.lifetime.end.p0(i64 4, ptr %12) #6
  call void @llvm.lifetime.end.p0(i64 4, ptr %11) #6
  call void @llvm.lifetime.end.p0(i64 4, ptr %10) #6
  call void @llvm.lifetime.end.p0(i64 8, ptr %9) #6
  call void @llvm.lifetime.end.p0(i64 8, ptr %8) #6
  call void @llvm.lifetime.end.p0(i64 8, ptr %7) #6
  call void @llvm.lifetime.end.p0(i64 8, ptr %6) #6
  call void @llvm.lifetime.end.p0(i64 8, ptr %5) #6
  call void @llvm.lifetime.end.p0(i64 8, ptr %4) #6
  call void @llvm.lifetime.end.p0(i64 8, ptr %3) #6
  ret i32 0
}