; Function Attrs: nofree norecurse nosync nounwind memory(readwrite, inaccessiblemem: none) uwtable
define internal noundef i32 @unpack_16bit_3chan(ptr noundef readonly captures(none) %0) #1 {
  %2 = getelementptr inbounds nuw i8, ptr %0, i64 8
  %3 = load ptr, ptr %2, align 8, !tbaa !22
  %4 = getelementptr inbounds nuw i8, ptr %3, i64 12
  %5 = load i32, ptr %4, align 4, !tbaa !65
  %6 = getelementptr inbounds nuw i8, ptr %0, i64 44
  %7 = load i32, ptr %6, align 4, !tbaa !16
  %8 = getelementptr inbounds nuw i8, ptr %0, i64 100
  %9 = load i32, ptr %8, align 4, !tbaa !17
  %10 = sub nsw i32 %7, %9
  %11 = getelementptr inbounds nuw i8, ptr %3, i64 32
  %12 = load i32, ptr %11, align 8, !tbaa !31
  %13 = getelementptr inbounds nuw i8, ptr %3, i64 80
  %14 = load i32, ptr %13, align 8, !tbaa !31
  %15 = getelementptr inbounds nuw i8, ptr %3, i64 128
  %16 = load i32, ptr %15, align 8, !tbaa !31
  %17 = getelementptr inbounds nuw i8, ptr %0, i64 96
  %18 = load i32, ptr %17, align 8, !tbaa !19
  %19 = icmp slt i32 %18, %10
  br i1 %19, label %.lr.ph76, label %._crit_edge77

.lr.ph76:                                         ; preds = %1
  %20 = mul i32 %5, 6
  %21 = getelementptr inbounds nuw i8, ptr %3, i64 132
  %22 = load i32, ptr %21, align 4, !tbaa !32
  %23 = getelementptr inbounds nuw i8, ptr %3, i64 84
  %24 = load i32, ptr %23, align 4, !tbaa !32
  %25 = getelementptr inbounds nuw i8, ptr %3, i64 36
  %26 = load i32, ptr %25, align 4, !tbaa !32
  %27 = sext i32 %5 to i64
  %28 = sext i32 %20 to i64
  %29 = icmp sgt i32 %5, 0
  %30 = sext i32 %26 to i64
  %31 = sext i32 %24 to i64
  %32 = sext i32 %22 to i64
  br i1 %29, label %.lr.ph.us.us.preheader, label %._crit_edge77

.lr.ph.us.us.preheader:                           ; preds = %.lr.ph76
  %33 = getelementptr inbounds nuw i8, ptr %3, i64 40
  %34 = load ptr, ptr %33, align 8, !tbaa !3
  %35 = getelementptr inbounds nuw i8, ptr %3, i64 88
  %36 = load ptr, ptr %35, align 8, !tbaa !3
  %37 = getelementptr inbounds nuw i8, ptr %3, i64 136
  %38 = load ptr, ptr %37, align 8, !tbaa !3
  %39 = getelementptr inbounds nuw i8, ptr %0, i64 136
  %40 = load ptr, ptr %39, align 8, !tbaa !21
  %41 = mul i32 %20, %18
  %42 = sext i32 %41 to i64
  %43 = getelementptr inbounds i8, ptr %40, i64 %42
  %44 = sext i32 %12 to i64
  %45 = sext i32 %14 to i64
  %46 = sext i32 %16 to i64
  %wide.trip.count = zext nneg i32 %5 to i64
  br label %.lr.ph.us.us

.lr.ph.us.us:                                     ; preds = %.lr.ph.us.us.preheader, %._crit_edge.us.us
  %.05874.us.us = phi i32 [ %66, %._crit_edge.us.us ], [ %18, %.lr.ph.us.us.preheader ]
  %.05973.us.us = phi ptr [ %62, %._crit_edge.us.us ], [ %43, %.lr.ph.us.us.preheader ]
  %.06072.us.us = phi ptr [ %63, %._crit_edge.us.us ], [ %34, %.lr.ph.us.us.preheader ]
  %.06171.us.us = phi ptr [ %64, %._crit_edge.us.us ], [ %36, %.lr.ph.us.us.preheader ]
  %.06270.us.us = phi ptr [ %65, %._crit_edge.us.us ], [ %38, %.lr.ph.us.us.preheader ]
  %47 = getelementptr inbounds nuw i16, ptr %.05973.us.us, i64 %27
  %48 = getelementptr inbounds nuw i16, ptr %47, i64 %27
  br label %57

.preheader.us.us:                                 ; preds = %.lr.ph67.us.us, %.preheader.us.us
  %indvars.iv119 = phi i64 [ %indvars.iv.next120, %.preheader.us.us ], [ 0, %.lr.ph67.us.us ]
  %49 = getelementptr inbounds nuw i16, ptr %48, i64 %indvars.iv119
  %50 = load i16, ptr %49, align 2, !tbaa !36
  %51 = mul nsw i64 %indvars.iv119, %46
  %52 = getelementptr inbounds i8, ptr %.06270.us.us, i64 %51
  store i16 %50, ptr %52, align 2, !tbaa !36
  %indvars.iv.next120 = add nuw nsw i64 %indvars.iv119, 1
  %exitcond123.not = icmp eq i64 %indvars.iv.next120, %wide.trip.count
  br i1 %exitcond123.not, label %._crit_edge.us.us, label %.preheader.us.us, !llvm.loop !105

.lr.ph67.us.us:                                   ; preds = %.lr.ph67.us.us.preheader, %.lr.ph67.us.us
  %indvars.iv114 = phi i64 [ 0, %.lr.ph67.us.us.preheader ], [ %indvars.iv.next115, %.lr.ph67.us.us ]
  %53 = getelementptr inbounds nuw i16, ptr %47, i64 %indvars.iv114
  %54 = load i16, ptr %53, align 2, !tbaa !36
  %55 = mul nsw i64 %indvars.iv114, %45
  %56 = getelementptr inbounds i8, ptr %.06171.us.us, i64 %55
  store i16 %54, ptr %56, align 2, !tbaa !36
  %indvars.iv.next115 = add nuw nsw i64 %indvars.iv114, 1
  %exitcond118.not = icmp eq i64 %indvars.iv.next115, %wide.trip.count
  br i1 %exitcond118.not, label %.preheader.us.us, label %.lr.ph67.us.us, !llvm.loop !106

57:                                               ; preds = %57, %.lr.ph.us.us
  %indvars.iv = phi i64 [ %indvars.iv.next, %57 ], [ 0, %.lr.ph.us.us ]
  %58 = getelementptr inbounds nuw i16, ptr %.05973.us.us, i64 %indvars.iv
  %59 = load i16, ptr %58, align 2, !tbaa !36
  %60 = mul nsw i64 %indvars.iv, %44
  %61 = getelementptr inbounds i8, ptr %.06072.us.us, i64 %60
  store i16 %59, ptr %61, align 2, !tbaa !36
  %indvars.iv.next = add nuw nsw i64 %indvars.iv, 1
  %exitcond.not = icmp eq i64 %indvars.iv.next, %wide.trip.count
  br i1 %exitcond.not, label %.lr.ph67.us.us.preheader, label %57, !llvm.loop !107

.lr.ph67.us.us.preheader:                         ; preds = %57
  %62 = getelementptr inbounds nuw i8, ptr %.05973.us.us, i64 %28
  br label %.lr.ph67.us.us

._crit_edge.us.us:                                ; preds = %.preheader.us.us
  %63 = getelementptr inbounds i8, ptr %.06072.us.us, i64 %30
  %64 = getelementptr inbounds i8, ptr %.06171.us.us, i64 %31
  %65 = getelementptr inbounds i8, ptr %.06270.us.us, i64 %32
  %66 = add nsw i32 %.05874.us.us, 1
  %67 = icmp slt i32 %66, %10
  br i1 %67, label %.lr.ph.us.us, label %._crit_edge77, !llvm.loop !108

._crit_edge77:                                    ; preds = %._crit_edge.us.us, %.lr.ph76, %1
  ret i32 0
}